target datalayout = "e-m:e-p270:32:32-p271:32:32-p272:64:64-i64:64-i128:128-f80:128-n8:16:32:64-S128"
target triple = "x86_64-pc-linux-gnu"

%struct.cmsysProcess_s = type { ptr, i32, [3 x i32], [3 x i32], i32, [1024 x i8], ptr, i32, double, ptr, i32, i32, i32, i32, i32, %struct.kwsysProcessTime_s, %struct.kwsysProcessTime_s, i32, i32, %struct.fd_set, i32, i32, i32, [1025 x i8], ptr, ptr, ptr, ptr, ptr, i32, i32, i32, [2 x i32], [2 x i32], [2 x i32], i32, ptr }
%struct.kwsysProcessTime_s = type { i64, i64 }
%struct.fd_set = type { [16 x i64] }
%struct.timeval = type { i64, i64 }
%struct.timespec = type { i64, i64 }

; Function Attrs: nounwind uwtable
define internal { i64, i64 } @kwsysProcessTimeGetCurrent() #0 {
  %1 = alloca %struct.kwsysProcessTime_s, align 8
  %2 = alloca %struct.timeval, align 8
  %3 = alloca %struct.timespec, align 8
  call void @llvm.lifetime.start.p0(i64 16, ptr %2) #11
  call void @llvm.lifetime.start.p0(i64 16, ptr %3) #11
  %4 = call i32 @clock_gettime(i32 noundef 1, ptr noundef %3) #11
  %5 = getelementptr inbounds nuw %struct.timespec, ptr %3, i32 0, i32 0
  %6 = load i64, ptr %5, align 8, !tbaa !108
  %7 = getelementptr inbounds nuw %struct.timeval, ptr %2, i32 0, i32 0
  store i64 %6, ptr %7, align 8, !tbaa !110
  %8 = getelementptr inbounds nuw %struct.timespec, ptr %3, i32 0, i32 1
  %9 = load i64, ptr %8, align 8, !tbaa !112
  %10 = sdiv i64 %9, 1000
  %11 = getelementptr inbounds nuw %struct.timeval, ptr %2, i32 0, i32 1
  store i64 %10, ptr %11, align 8, !tbaa !113
  %12 = getelementptr inbounds nuw %struct.timeval, ptr %2, i32 0, i32 0
  %13 = load i64, ptr %12, align 8, !tbaa !110
  %14 = getelementptr inbounds nuw %struct.kwsysProcessTime_s, ptr %1, i32 0, i32 0
  store i64 %13, ptr %14, align 8, !tbaa !114
  %15 = getelementptr inbounds nuw %struct.timeval, ptr %2, i32 0, i32 1
  %16 = load i64, ptr %15, align 8, !tbaa !113
  %17 = getelementptr inbounds nuw %struct.kwsysProcessTime_s, ptr %1, i32 0, i32 1
  store i64 %16, ptr %17, align 8, !tbaa !115
  call void @llvm.lifetime.end.p0(i64 16, ptr %3) #11
  call void @llvm.lifetime.end.p0(i64 16, ptr %2) #11
  %18 = load { i64, i64 }, ptr %1, align 8
  ret { i64, i64 } %18
}

; Function Attrs: nounwind uwtable
define dso_local void @cmsysProcess_ResetStartTime(ptr noundef %0) #0 {
  %2 = alloca ptr, align 8
  %3 = alloca %struct.kwsysProcessTime_s, align 8
  store ptr %0, ptr %2, align 8, !tbaa !4
  %4 = load ptr, ptr %2, align 8, !tbaa !4
  %5 = icmp ne ptr %4, null
  br i1 %5, label %7, label %6

6:                                                ; preds = %1
  br label %15

7:                                                ; preds = %1
  %8 = load ptr, ptr %2, align 8, !tbaa !4
  %9 = getelementptr inbounds nuw %struct.cmsysProcess_s, ptr %8, i32 0, i32 15
  call void @llvm.lifetime.start.p0(i64 16, ptr %3) #11
  %10 = call { i64, i64 } @kwsysProcessTimeGetCurrent()
  %11 = getelementptr inbounds nuw { i64, i64 }, ptr %3, i32 0, i32 0
  %12 = extractvalue { i64, i64 } %10, 0
  store i64 %12, ptr %11, align 8
  %13 = getelementptr inbounds nuw { i64, i64 }, ptr %3, i32 0, i32 1
  %14 = extractvalue { i64, i64 } %10, 1
  store i64 %14, ptr %13, align 8
  call void @llvm.memcpy.p0.p0.i64(ptr align 8 %9, ptr align 8 %3, i64 16, i1 false), !tbaa.struct !68
  call void @llvm.lifetime.end.p0(i64 16, ptr %3) #11
  br label %15

15:                                               ; preds = %7, %6
  ret void
}