; Function Attrs: nounwind uwtable
define dso_local void @cmsysProcess_ResetStartTime(ptr noundef writeonly %0) local_unnamed_addr #4 {
  %2 = alloca %struct.timespec, align 8
  %.not = icmp eq ptr %0, null
  br i1 %.not, label %10, label %3

3:                                                ; preds = %1
  %4 = getelementptr inbounds nuw i8, ptr %0, i64 1120
  call void @llvm.lifetime.start.p0(i64 16, ptr nonnull %2) #25
  %5 = call i32 @clock_gettime(i32 noundef 1, ptr noundef nonnull %2) #25
  %6 = load i64, ptr %2, align 8, !tbaa !74
  %7 = getelementptr inbounds nuw i8, ptr %2, i64 8
  %8 = load i64, ptr %7, align 8, !tbaa !76
  %9 = sdiv i64 %8, 1000
  call void @llvm.lifetime.end.p0(i64 16, ptr nonnull %2) #25
  store i64 %6, ptr %4, align 8, !tbaa !77
  %.sroa.4.0..sroa_idx = getelementptr inbounds nuw i8, ptr %0, i64 1128
  store i64 %9, ptr %.sroa.4.0..sroa_idx, align 8, !tbaa !77
  br label %10

10:                                               ; preds = %1, %3
  ret void
}